target datalayout = "e-m:e-p270:32:32-p271:32:32-p272:64:64-i64:64-i128:128-f80:128-n8:16:32:64-S128"
target triple = "x86_64-pc-linux-gnu"

%struct.pkcs7_st = type { ptr, i64, i32, i32, ptr, %union.anon, %struct.PKCS7_CTX_st }
%union.anon = type { ptr }
%struct.PKCS7_CTX_st = type { ptr, ptr }

@.str = private unnamed_addr constant [34 x i8] c"../openssl/crypto/pkcs7/pk7_lib.c\00", align 1

; Function Attrs: nounwind uwtable
define i32 @ossl_pkcs7_set1_propq(ptr noundef %0, ptr noundef %1) #0 {
  %3 = alloca i32, align 4
  %4 = alloca ptr, align 8
  %5 = alloca ptr, align 8
  store ptr %0, ptr %4, align 8, !tbaa !3
  store ptr %1, ptr %5, align 8, !tbaa !12
  %6 = load ptr, ptr %4, align 8, !tbaa !3
  %7 = getelementptr inbounds nuw %struct.pkcs7_st, ptr %6, i32 0, i32 6
  %8 = getelementptr inbounds nuw %struct.PKCS7_CTX_st, ptr %7, i32 0, i32 1
  %9 = load ptr, ptr %8, align 8, !tbaa !122
  %10 = icmp ne ptr %9, null
  br i1 %10, label %11, label %19

11:                                               ; preds = %2
  %12 = load ptr, ptr %4, align 8, !tbaa !3
  %13 = getelementptr inbounds nuw %struct.pkcs7_st, ptr %12, i32 0, i32 6
  %14 = getelementptr inbounds nuw %struct.PKCS7_CTX_st, ptr %13, i32 0, i32 1
  %15 = load ptr, ptr %14, align 8, !tbaa !122
  call void @CRYPTO_free(ptr noundef %15, ptr noundef @.str, i32 noundef 494)
  %16 = load ptr, ptr %4, align 8, !tbaa !3
  %17 = getelementptr inbounds nuw %struct.pkcs7_st, ptr %16, i32 0, i32 6
  %18 = getelementptr inbounds nuw %struct.PKCS7_CTX_st, ptr %17, i32 0, i32 1
  store ptr null, ptr %18, align 8, !tbaa !122
  br label %19

19:                                               ; preds = %11, %2
  %20 = load ptr, ptr %5, align 8, !tbaa !12
  %21 = icmp ne ptr %20, null
  br i1 %21, label %22, label %35

22:                                               ; preds = %19
  %23 = load ptr, ptr %5, align 8, !tbaa !12
  %24 = call noalias ptr @CRYPTO_strdup(ptr noundef %23, ptr noundef @.str, i32 noundef 498)
  %25 = load ptr, ptr %4, align 8, !tbaa !3
  %26 = getelementptr inbounds nuw %struct.pkcs7_st, ptr %25, i32 0, i32 6
  %27 = getelementptr inbounds nuw %struct.PKCS7_CTX_st, ptr %26, i32 0, i32 1
  store ptr %24, ptr %27, align 8, !tbaa !122
  %28 = load ptr, ptr %4, align 8, !tbaa !3
  %29 = getelementptr inbounds nuw %struct.pkcs7_st, ptr %28, i32 0, i32 6
  %30 = getelementptr inbounds nuw %struct.PKCS7_CTX_st, ptr %29, i32 0, i32 1
  %31 = load ptr, ptr %30, align 8, !tbaa !122
  %32 = icmp eq ptr %31, null
  br i1 %32, label %33, label %34

33:                                               ; preds = %22
  store i32 0, ptr %3, align 4
  br label %36

34:                                               ; preds = %22
  br label %35

35:                                               ; preds = %34, %19
  store i32 1, ptr %3, align 4
  br label %36

36:                                               ; preds = %35, %33
  %37 = load i32, ptr %3, align 4
  ret i32 %37
}