; Function Attrs: nounwind uwtable
define range(i32 0, 2) i32 @ossl_pkcs7_set1_propq(ptr noundef captures(none) %0, ptr noundef %1) local_unnamed_addr #0 {
  %3 = getelementptr inbounds nuw i8, ptr %0, i64 48
  %4 = load ptr, ptr %3, align 8, !tbaa !92
  %.not = icmp eq ptr %4, null
  br i1 %.not, label %6, label %5

5:                                                ; preds = %2
  tail call void @CRYPTO_free(ptr noundef nonnull %4, ptr noundef nonnull @.str, i32 noundef 494) #7
  store ptr null, ptr %3, align 8, !tbaa !92
  br label %6

6:                                                ; preds = %5, %2
  %.not9 = icmp eq ptr %1, null
  br i1 %.not9, label %10, label %7

7:                                                ; preds = %6
  %8 = tail call noalias ptr @CRYPTO_strdup(ptr noundef nonnull %1, ptr noundef nonnull @.str, i32 noundef 498) #7
  store ptr %8, ptr %3, align 8, !tbaa !92
  %9 = icmp eq ptr %8, null
  br i1 %9, label %11, label %10

10:                                               ; preds = %7, %6
  br label %11

11:                                               ; preds = %7, %10
  %.0 = phi i32 [ 1, %10 ], [ 0, %7 ]
  ret i32 %.0
}